target datalayout = "e-m:e-p270:32:32-p271:32:32-p272:64:64-i64:64-i128:128-f80:128-n8:16:32:64-S128"
target triple = "x86_64-unknown-linux-gnu"

%union.anon.0 = type { %struct.QTailQLink }
%struct.QTailQLink = type { ptr, ptr }
%struct.StatsCallbacks = type { i32, ptr, ptr, %union.anon }
%union.anon = type { %struct.QTailQLink }
%struct.StatsFilter = type { i32, i8, ptr, %union.anon.1 }
%union.anon.1 = type { %struct.StatsVCPUFilter }
%struct.StatsVCPUFilter = type { i8, ptr }
%struct.StatsRequestList = type { ptr, ptr }
%struct.ErrorPropagator = type { ptr, ptr }
%struct.StatsRequest = type { i32, i8, ptr }

@stats_callbacks = internal global %union.anon.0 { %struct.QTailQLink { ptr null, ptr @stats_callbacks } }, align 8
@error_fatal = external global ptr, align 8

; Function Attrs: nounwind sspstrong uwtable
define internal void @error_propagator_cleanup(ptr noundef %prop) #0 {
entry:
  %prop.addr = alloca ptr, align 8
  store ptr %prop, ptr %prop.addr, align 8
  %0 = load ptr, ptr %prop.addr, align 8
  %errp = getelementptr inbounds %struct.ErrorPropagator, ptr %0, i32 0, i32 1
  %1 = load ptr, ptr %errp, align 8
  %2 = load ptr, ptr %prop.addr, align 8
  %local_err = getelementptr inbounds %struct.ErrorPropagator, ptr %2, i32 0, i32 0
  %3 = load ptr, ptr %local_err, align 8
  call void @error_propagate(ptr noundef %1, ptr noundef %3)
  ret void
}

; Function Attrs: nounwind sspstrong uwtable
define internal void @glib_auto_cleanup_ErrorPropagator(ptr noundef %_ptr) #0 {
entry:
  %_ptr.addr = alloca ptr, align 8
  store ptr %_ptr, ptr %_ptr.addr, align 8
  %0 = load ptr, ptr %_ptr.addr, align 8
  call void @error_propagator_cleanup(ptr noundef %0)
  ret void
}

; Function Attrs: nounwind sspstrong uwtable
define internal zeroext i1 @invoke_stats_cb(ptr noundef %entry1, ptr noundef %stats_results, ptr noundef %filter, ptr noundef %request, ptr noundef %errp) #0 {
entry:
  %retval = alloca i1, align 1
  %entry.addr = alloca ptr, align 8
  %stats_results.addr = alloca ptr, align 8
  %filter.addr = alloca ptr, align 8
  %request.addr = alloca ptr, align 8
  %errp.addr = alloca ptr, align 8
  %_auto_errp_prop = alloca %struct.ErrorPropagator, align 8
  %targets = alloca ptr, align 8
  %names = alloca ptr, align 8
  %cleanup.dest.slot = alloca i32, align 4
  store ptr %entry1, ptr %entry.addr, align 8
  store ptr %stats_results, ptr %stats_results.addr, align 8
  store ptr %filter, ptr %filter.addr, align 8
  store ptr %request, ptr %request.addr, align 8
  store ptr %errp, ptr %errp.addr, align 8
  %local_err = getelementptr inbounds %struct.ErrorPropagator, ptr %_auto_errp_prop, i32 0, i32 0
  store ptr null, ptr %local_err, align 8
  %errp2 = getelementptr inbounds %struct.ErrorPropagator, ptr %_auto_errp_prop, i32 0, i32 1
  %0 = load ptr, ptr %errp.addr, align 8
  store ptr %0, ptr %errp2, align 8
  br label %do.body

do.body:                                          ; preds = %entry
  %1 = load ptr, ptr %errp.addr, align 8
  %tobool = icmp ne ptr %1, null
  br i1 %tobool, label %lor.lhs.false, label %if.then

lor.lhs.false:                                    ; preds = %do.body
  %2 = load ptr, ptr %errp.addr, align 8
  %cmp = icmp eq ptr %2, @error_fatal
  br i1 %cmp, label %if.then, label %if.end

if.then:                                          ; preds = %lor.lhs.false, %do.body
  %local_err3 = getelementptr inbounds %struct.ErrorPropagator, ptr %_auto_errp_prop, i32 0, i32 0
  store ptr %local_err3, ptr %errp.addr, align 8
  br label %if.end

if.end:                                           ; preds = %if.then, %lor.lhs.false
  br label %do.cond

do.cond:                                          ; preds = %if.end
  br label %do.end

do.end:                                           ; preds = %do.cond
  store ptr null, ptr %targets, align 8
  store ptr null, ptr %names, align 8
  %3 = load ptr, ptr %request.addr, align 8
  %tobool4 = icmp ne ptr %3, null
  br i1 %tobool4, label %if.then5, label %if.end18

if.then5:                                         ; preds = %do.end
  %4 = load ptr, ptr %request.addr, align 8
  %provider = getelementptr inbounds %struct.StatsRequest, ptr %4, i32 0, i32 0
  %5 = load i32, ptr %provider, align 8
  %6 = load ptr, ptr %entry.addr, align 8
  %provider6 = getelementptr inbounds %struct.StatsCallbacks, ptr %6, i32 0, i32 0
  %7 = load i32, ptr %provider6, align 8
  %cmp7 = icmp ne i32 %5, %7
  br i1 %cmp7, label %if.then8, label %if.end9

if.then8:                                         ; preds = %if.then5
  store i1 true, ptr %retval, align 1
  store i32 1, ptr %cleanup.dest.slot, align 4
  br label %cleanup

if.end9:                                          ; preds = %if.then5
  %8 = load ptr, ptr %request.addr, align 8
  %has_names = getelementptr inbounds %struct.StatsRequest, ptr %8, i32 0, i32 1
  %9 = load i8, ptr %has_names, align 4
  %tobool10 = trunc i8 %9 to i1
  br i1 %tobool10, label %land.lhs.true, label %if.end14

land.lhs.true:                                    ; preds = %if.end9
  %10 = load ptr, ptr %request.addr, align 8
  %names11 = getelementptr inbounds %struct.StatsRequest, ptr %10, i32 0, i32 2
  %11 = load ptr, ptr %names11, align 8
  %tobool12 = icmp ne ptr %11, null
  br i1 %tobool12, label %if.end14, label %if.then13

if.then13:                                        ; preds = %land.lhs.true
  store i1 true, ptr %retval, align 1
  store i32 1, ptr %cleanup.dest.slot, align 4
  br label %cleanup

if.end14:                                         ; preds = %land.lhs.true, %if.end9
  %12 = load ptr, ptr %request.addr, align 8
  %has_names15 = getelementptr inbounds %struct.StatsRequest, ptr %12, i32 0, i32 1
  %13 = load i8, ptr %has_names15, align 4
  %tobool16 = trunc i8 %13 to i1
  br i1 %tobool16, label %cond.true, label %cond.false

cond.true:                                        ; preds = %if.end14
  %14 = load ptr, ptr %request.addr, align 8
  %names17 = getelementptr inbounds %struct.StatsRequest, ptr %14, i32 0, i32 2
  %15 = load ptr, ptr %names17, align 8
  br label %cond.end

cond.false:                                       ; preds = %if.end14
  br label %cond.end

cond.end:                                         ; preds = %cond.false, %cond.true
  %cond = phi ptr [ %15, %cond.true ], [ null, %cond.false ]
  store ptr %cond, ptr %names, align 8
  br label %if.end18

if.end18:                                         ; preds = %cond.end, %do.end
  %16 = load ptr, ptr %filter.addr, align 8
  %target = getelementptr inbounds %struct.StatsFilter, ptr %16, i32 0, i32 0
  %17 = load i32, ptr %target, align 8
  switch i32 %17, label %sw.default [
    i32 0, label %sw.bb
    i32 1, label %sw.bb19
    i32 2, label %sw.bb29
  ]

sw.bb:                                            ; preds = %if.end18
  br label %sw.epilog

sw.bb19:                                          ; preds = %if.end18
  %18 = load ptr, ptr %filter.addr, align 8
  %u = getelementptr inbounds %struct.StatsFilter, ptr %18, i32 0, i32 3
  %has_vcpus = getelementptr inbounds %struct.StatsVCPUFilter, ptr %u, i32 0, i32 0
  %19 = load i8, ptr %has_vcpus, align 8
  %tobool20 = trunc i8 %19 to i1
  br i1 %tobool20, label %if.then21, label %if.end28

if.then21:                                        ; preds = %sw.bb19
  %20 = load ptr, ptr %filter.addr, align 8
  %u22 = getelementptr inbounds %struct.StatsFilter, ptr %20, i32 0, i32 3
  %vcpus = getelementptr inbounds %struct.StatsVCPUFilter, ptr %u22, i32 0, i32 1
  %21 = load ptr, ptr %vcpus, align 8
  %tobool23 = icmp ne ptr %21, null
  br i1 %tobool23, label %if.end25, label %if.then24

if.then24:                                        ; preds = %if.then21
  store i1 true, ptr %retval, align 1
  store i32 1, ptr %cleanup.dest.slot, align 4
  br label %cleanup

if.end25:                                         ; preds = %if.then21
  %22 = load ptr, ptr %filter.addr, align 8
  %u26 = getelementptr inbounds %struct.StatsFilter, ptr %22, i32 0, i32 3
  %vcpus27 = getelementptr inbounds %struct.StatsVCPUFilter, ptr %u26, i32 0, i32 1
  %23 = load ptr, ptr %vcpus27, align 8
  store ptr %23, ptr %targets, align 8
  br label %if.end28

if.end28:                                         ; preds = %if.end25, %sw.bb19
  br label %sw.epilog

sw.bb29:                                          ; preds = %if.end18
  br label %sw.epilog

sw.default:                                       ; preds = %if.end18
  call void @abort() #6
  unreachable

sw.epilog:                                        ; preds = %sw.bb29, %if.end28, %sw.bb
  %24 = load ptr, ptr %entry.addr, align 8
  %stats_cb = getelementptr inbounds %struct.StatsCallbacks, ptr %24, i32 0, i32 1
  %25 = load ptr, ptr %stats_cb, align 8
  %26 = load ptr, ptr %stats_results.addr, align 8
  %27 = load ptr, ptr %filter.addr, align 8
  %target30 = getelementptr inbounds %struct.StatsFilter, ptr %27, i32 0, i32 0
  %28 = load i32, ptr %target30, align 8
  %29 = load ptr, ptr %names, align 8
  %30 = load ptr, ptr %targets, align 8
  %31 = load ptr, ptr %errp.addr, align 8
  call void %25(ptr noundef %26, i32 noundef %28, ptr noundef %29, ptr noundef %30, ptr noundef %31)
  %32 = load ptr, ptr %errp.addr, align 8
  %33 = load ptr, ptr %32, align 8
  %tobool31 = icmp ne ptr %33, null
  br i1 %tobool31, label %if.then32, label %if.end33

if.then32:                                        ; preds = %sw.epilog
  %34 = load ptr, ptr %stats_results.addr, align 8
  %35 = load ptr, ptr %34, align 8
  call void @qapi_free_StatsResultList(ptr noundef %35)
  %36 = load ptr, ptr %stats_results.addr, align 8
  store ptr null, ptr %36, align 8
  store i1 false, ptr %retval, align 1
  store i32 1, ptr %cleanup.dest.slot, align 4
  br label %cleanup

if.end33:                                         ; preds = %sw.epilog
  store i1 true, ptr %retval, align 1
  store i32 1, ptr %cleanup.dest.slot, align 4
  br label %cleanup

cleanup:                                          ; preds = %if.end33, %if.then32, %if.then24, %if.then13, %if.then8
  call void @glib_auto_cleanup_ErrorPropagator(ptr noundef %_auto_errp_prop)
  %37 = load i1, ptr %retval, align 1
  ret i1 %37
}

; Function Attrs: nounwind sspstrong uwtable
define dso_local ptr @qmp_query_stats(ptr noundef %filter, ptr noundef %errp) #0 {
entry:
  %filter.addr = alloca ptr, align 8
  %errp.addr = alloca ptr, align 8
  %stats_results = alloca ptr, align 8
  %entry1 = alloca ptr, align 8
  %request = alloca ptr, align 8
  store ptr %filter, ptr %filter.addr, align 8
  store ptr %errp, ptr %errp.addr, align 8
  store ptr null, ptr %stats_results, align 8
  %0 = load ptr, ptr @stats_callbacks, align 8
  store ptr %0, ptr %entry1, align 8
  br label %for.cond

for.cond:                                         ; preds = %for.inc11, %entry
  %1 = load ptr, ptr %entry1, align 8
  %tobool = icmp ne ptr %1, null
  br i1 %tobool, label %for.body, label %for.end13

for.body:                                         ; preds = %for.cond
  %2 = load ptr, ptr %filter.addr, align 8
  %has_providers = getelementptr inbounds %struct.StatsFilter, ptr %2, i32 0, i32 1
  %3 = load i8, ptr %has_providers, align 4
  %tobool2 = trunc i8 %3 to i1
  br i1 %tobool2, label %if.then, label %if.else

if.then:                                          ; preds = %for.body
  %4 = load ptr, ptr %filter.addr, align 8
  %providers = getelementptr inbounds %struct.StatsFilter, ptr %4, i32 0, i32 2
  %5 = load ptr, ptr %providers, align 8
  store ptr %5, ptr %request, align 8
  br label %for.cond3

for.cond3:                                        ; preds = %for.inc, %if.then
  %6 = load ptr, ptr %request, align 8
  %tobool4 = icmp ne ptr %6, null
  br i1 %tobool4, label %for.body5, label %for.end

for.body5:                                        ; preds = %for.cond3
  %7 = load ptr, ptr %entry1, align 8
  %8 = load ptr, ptr %filter.addr, align 8
  %9 = load ptr, ptr %request, align 8
  %value = getelementptr inbounds %struct.StatsRequestList, ptr %9, i32 0, i32 1
  %10 = load ptr, ptr %value, align 8
  %11 = load ptr, ptr %errp.addr, align 8
  %call = call zeroext i1 @invoke_stats_cb(ptr noundef %7, ptr noundef %stats_results, ptr noundef %8, ptr noundef %10, ptr noundef %11)
  br i1 %call, label %if.end, label %if.then6

if.then6:                                         ; preds = %for.body5
  br label %for.end

if.end:                                           ; preds = %for.body5
  br label %for.inc

for.inc:                                          ; preds = %if.end
  %12 = load ptr, ptr %request, align 8
  %next = getelementptr inbounds %struct.StatsRequestList, ptr %12, i32 0, i32 0
  %13 = load ptr, ptr %next, align 8
  store ptr %13, ptr %request, align 8
  br label %for.cond3, !llvm.loop !5

for.end:                                          ; preds = %if.then6, %for.cond3
  br label %if.end10

if.else:                                          ; preds = %for.body
  %14 = load ptr, ptr %entry1, align 8
  %15 = load ptr, ptr %filter.addr, align 8
  %16 = load ptr, ptr %errp.addr, align 8
  %call7 = call zeroext i1 @invoke_stats_cb(ptr noundef %14, ptr noundef %stats_results, ptr noundef %15, ptr noundef null, ptr noundef %16)
  br i1 %call7, label %if.end9, label %if.then8

if.then8:                                         ; preds = %if.else
  br label %for.end13

if.end9:                                          ; preds = %if.else
  br label %if.end10

if.end10:                                         ; preds = %if.end9, %for.end
  br label %for.inc11

for.inc11:                                        ; preds = %if.end10
  %17 = load ptr, ptr %entry1, align 8
  %next12 = getelementptr inbounds %struct.StatsCallbacks, ptr %17, i32 0, i32 3
  %18 = load ptr, ptr %next12, align 8
  store ptr %18, ptr %entry1, align 8
  br label %for.cond, !llvm.loop !7

for.end13:                                        ; preds = %if.then8, %for.cond
  %19 = load ptr, ptr %stats_results, align 8
  ret ptr %19
}