; Function Attrs: nounwind sspstrong uwtable
define dso_local ptr @qmp_query_stats(ptr noundef readonly captures(none) %filter, ptr noundef %errp) local_unnamed_addr #0 {
entry:
  %_auto_errp_prop.i10 = alloca %struct.ErrorPropagator, align 8
  %_auto_errp_prop.i = alloca %struct.ErrorPropagator, align 8
  %stats_results = alloca ptr, align 8
  store ptr null, ptr %stats_results, align 8
  %entry1.045 = load ptr, ptr @stats_callbacks, align 8
  %tobool.not46 = icmp eq ptr %entry1.045, null
  br i1 %tobool.not46, label %for.end13, label %for.body.lr.ph

for.body.lr.ph:                                   ; preds = %entry
  %has_providers = getelementptr inbounds nuw i8, ptr %filter, i64 4
  %errp2.i11 = getelementptr inbounds nuw i8, ptr %_auto_errp_prop.i10, i64 8
  %tobool.i12 = icmp eq ptr %errp, null
  %cmp.i13 = icmp eq ptr %errp, @error_fatal
  %or.cond.i14 = or i1 %tobool.i12, %cmp.i13
  %spec.select.i15 = select i1 %or.cond.i14, ptr %_auto_errp_prop.i10, ptr %errp
  %u.i27 = getelementptr inbounds nuw i8, ptr %filter, i64 16
  %vcpus.i30 = getelementptr inbounds nuw i8, ptr %filter, i64 24
  %providers = getelementptr inbounds nuw i8, ptr %filter, i64 8
  %errp2.i = getelementptr inbounds nuw i8, ptr %_auto_errp_prop.i, i64 8
  %spec.select.i = select i1 %or.cond.i14, ptr %_auto_errp_prop.i, ptr %errp
  br label %for.body

for.body:                                         ; preds = %for.body.lr.ph, %for.inc11
  %entry1.047 = phi ptr [ %entry1.045, %for.body.lr.ph ], [ %entry1.0, %for.inc11 ]
  %0 = load i8, ptr %has_providers, align 4
  %tobool2 = trunc i8 %0 to i1
  br i1 %tobool2, label %if.then, label %if.else

if.then:                                          ; preds = %for.body
  %request.042 = load ptr, ptr %providers, align 8
  %tobool4.not43 = icmp eq ptr %request.042, null
  br i1 %tobool4.not43, label %for.inc11, label %for.body5.lr.ph

for.body5.lr.ph:                                  ; preds = %if.then
  %stats_cb.i = getelementptr inbounds nuw i8, ptr %entry1.047, i64 8
  br label %for.body5

for.body5:                                        ; preds = %for.body5.lr.ph, %invoke_stats_cb.exit
  %request.044 = phi ptr [ %request.042, %for.body5.lr.ph ], [ %request.0, %invoke_stats_cb.exit ]
  %value = getelementptr inbounds nuw i8, ptr %request.044, i64 8
  %1 = load ptr, ptr %value, align 8
  call void @llvm.lifetime.start.p0(i64 16, ptr nonnull %_auto_errp_prop.i)
  store ptr null, ptr %_auto_errp_prop.i, align 8
  store ptr %errp, ptr %errp2.i, align 8
  %tobool4.not.i = icmp eq ptr %1, null
  br i1 %tobool4.not.i, label %if.end18.i, label %if.then5.i

if.then5.i:                                       ; preds = %for.body5
  %2 = load i32, ptr %1, align 8
  %3 = load i32, ptr %entry1.047, align 8
  %cmp7.not.i = icmp eq i32 %2, %3
  br i1 %cmp7.not.i, label %if.end9.i, label %invoke_stats_cb.exit

if.end9.i:                                        ; preds = %if.then5.i
  %has_names.i = getelementptr inbounds nuw i8, ptr %1, i64 4
  %4 = load i8, ptr %has_names.i, align 4
  %tobool10.i = trunc i8 %4 to i1
  br i1 %tobool10.i, label %land.lhs.true.i, label %if.end18.i

land.lhs.true.i:                                  ; preds = %if.end9.i
  %names11.i = getelementptr inbounds nuw i8, ptr %1, i64 8
  %5 = load ptr, ptr %names11.i, align 8
  %tobool12.not.i = icmp eq ptr %5, null
  br i1 %tobool12.not.i, label %invoke_stats_cb.exit, label %if.end18.i

if.end18.i:                                       ; preds = %land.lhs.true.i, %if.end9.i, %for.body5
  %names.0.i = phi ptr [ null, %for.body5 ], [ null, %if.end9.i ], [ %5, %land.lhs.true.i ]
  %6 = load i32, ptr %filter, align 8
  switch i32 %6, label %sw.default.i [
    i32 0, label %sw.epilog.i
    i32 1, label %sw.bb19.i
    i32 2, label %sw.epilog.i
  ]

sw.bb19.i:                                        ; preds = %if.end18.i
  %7 = load i8, ptr %u.i27, align 8
  %tobool20.i = trunc i8 %7 to i1
  br i1 %tobool20.i, label %if.then21.i, label %sw.epilog.i

if.then21.i:                                      ; preds = %sw.bb19.i
  %8 = load ptr, ptr %vcpus.i30, align 8
  %tobool23.not.i = icmp eq ptr %8, null
  br i1 %tobool23.not.i, label %invoke_stats_cb.exit, label %sw.epilog.i

sw.default.i:                                     ; preds = %if.end18.i
  call void @abort() #7
  unreachable

sw.epilog.i:                                      ; preds = %if.then21.i, %sw.bb19.i, %if.end18.i, %if.end18.i
  %targets.0.i = phi ptr [ null, %sw.bb19.i ], [ null, %if.end18.i ], [ null, %if.end18.i ], [ %8, %if.then21.i ]
  %9 = load ptr, ptr %stats_cb.i, align 8
  call void %9(ptr noundef nonnull %stats_results, i32 noundef %6, ptr noundef %names.0.i, ptr noundef %targets.0.i, ptr noundef nonnull %spec.select.i) #8
  %10 = load ptr, ptr %spec.select.i, align 8
  %tobool31.not.i = icmp eq ptr %10, null
  br i1 %tobool31.not.i, label %sw.epilog.i.invoke_stats_cb.exit_crit_edge, label %invoke_stats_cb.exit.thread

sw.epilog.i.invoke_stats_cb.exit_crit_edge:       ; preds = %sw.epilog.i
  %_auto_errp_prop.val.i.pre = load ptr, ptr %_auto_errp_prop.i, align 8
  %_auto_errp_prop.val17.i.pre = load ptr, ptr %errp2.i, align 8
  br label %invoke_stats_cb.exit

invoke_stats_cb.exit.thread:                      ; preds = %sw.epilog.i
  %11 = load ptr, ptr %stats_results, align 8
  call void @qapi_free_StatsResultList(ptr noundef %11) #8
  store ptr null, ptr %stats_results, align 8
  %_auto_errp_prop.val.i35 = load ptr, ptr %_auto_errp_prop.i, align 8
  %_auto_errp_prop.val17.i36 = load ptr, ptr %errp2.i, align 8
  call void @error_propagate(ptr noundef %_auto_errp_prop.val17.i36, ptr noundef %_auto_errp_prop.val.i35) #8
  call void @llvm.lifetime.end.p0(i64 16, ptr nonnull %_auto_errp_prop.i)
  br label %for.inc11

invoke_stats_cb.exit:                             ; preds = %sw.epilog.i.invoke_stats_cb.exit_crit_edge, %if.then5.i, %land.lhs.true.i, %if.then21.i
  %_auto_errp_prop.val17.i = phi ptr [ %_auto_errp_prop.val17.i.pre, %sw.epilog.i.invoke_stats_cb.exit_crit_edge ], [ %errp, %if.then5.i ], [ %errp, %land.lhs.true.i ], [ %errp, %if.then21.i ]
  %_auto_errp_prop.val.i = phi ptr [ %_auto_errp_prop.val.i.pre, %sw.epilog.i.invoke_stats_cb.exit_crit_edge ], [ null, %if.then5.i ], [ null, %land.lhs.true.i ], [ null, %if.then21.i ]
  call void @error_propagate(ptr noundef %_auto_errp_prop.val17.i, ptr noundef %_auto_errp_prop.val.i) #8
  call void @llvm.lifetime.end.p0(i64 16, ptr nonnull %_auto_errp_prop.i)
  %request.0 = load ptr, ptr %request.044, align 8
  %tobool4.not = icmp eq ptr %request.0, null
  br i1 %tobool4.not, label %for.inc11, label %for.body5, !llvm.loop !5

if.else:                                          ; preds = %for.body
  call void @llvm.lifetime.start.p0(i64 16, ptr nonnull %_auto_errp_prop.i10)
  store ptr null, ptr %_auto_errp_prop.i10, align 8
  store ptr %errp, ptr %errp2.i11, align 8
  %12 = load i32, ptr %filter, align 8
  switch i32 %12, label %sw.default.i32 [
    i32 0, label %sw.epilog.i18
    i32 1, label %sw.bb19.i26
    i32 2, label %sw.epilog.i18
  ]

sw.bb19.i26:                                      ; preds = %if.else
  %13 = load i8, ptr %u.i27, align 8
  %tobool20.i28 = trunc i8 %13 to i1
  br i1 %tobool20.i28, label %if.then21.i29, label %sw.epilog.i18

if.then21.i29:                                    ; preds = %sw.bb19.i26
  %14 = load ptr, ptr %vcpus.i30, align 8
  %tobool23.not.i31 = icmp eq ptr %14, null
  br i1 %tobool23.not.i31, label %invoke_stats_cb.exit33.thread, label %sw.epilog.i18

sw.default.i32:                                   ; preds = %if.else
  call void @abort() #7
  unreachable

sw.epilog.i18:                                    ; preds = %if.then21.i29, %sw.bb19.i26, %if.else, %if.else
  %targets.0.i19 = phi ptr [ null, %sw.bb19.i26 ], [ null, %if.else ], [ null, %if.else ], [ %14, %if.then21.i29 ]
  %stats_cb.i20 = getelementptr inbounds nuw i8, ptr %entry1.047, i64 8
  %15 = load ptr, ptr %stats_cb.i20, align 8
  call void %15(ptr noundef nonnull %stats_results, i32 noundef %12, ptr noundef null, ptr noundef %targets.0.i19, ptr noundef nonnull %spec.select.i15) #8
  %16 = load ptr, ptr %spec.select.i15, align 8
  %tobool31.not.i21 = icmp eq ptr %16, null
  br i1 %tobool31.not.i21, label %sw.epilog.i18.invoke_stats_cb.exit33.thread_crit_edge, label %invoke_stats_cb.exit33

sw.epilog.i18.invoke_stats_cb.exit33.thread_crit_edge: ; preds = %sw.epilog.i18
  %_auto_errp_prop.val.i2438.pre = load ptr, ptr %_auto_errp_prop.i10, align 8
  %_auto_errp_prop.val17.i2539.pre = load ptr, ptr %errp2.i11, align 8
  br label %invoke_stats_cb.exit33.thread

invoke_stats_cb.exit33.thread:                    ; preds = %sw.epilog.i18.invoke_stats_cb.exit33.thread_crit_edge, %if.then21.i29
  %_auto_errp_prop.val17.i2539 = phi ptr [ %_auto_errp_prop.val17.i2539.pre, %sw.epilog.i18.invoke_stats_cb.exit33.thread_crit_edge ], [ %errp, %if.then21.i29 ]
  %_auto_errp_prop.val.i2438 = phi ptr [ %_auto_errp_prop.val.i2438.pre, %sw.epilog.i18.invoke_stats_cb.exit33.thread_crit_edge ], [ null, %if.then21.i29 ]
  call void @error_propagate(ptr noundef %_auto_errp_prop.val17.i2539, ptr noundef %_auto_errp_prop.val.i2438) #8
  call void @llvm.lifetime.end.p0(i64 16, ptr nonnull %_auto_errp_prop.i10)
  br label %for.inc11

invoke_stats_cb.exit33:                           ; preds = %sw.epilog.i18
  %17 = load ptr, ptr %stats_results, align 8
  call void @qapi_free_StatsResultList(ptr noundef %17) #8
  store ptr null, ptr %stats_results, align 8
  %_auto_errp_prop.val.i24 = load ptr, ptr %_auto_errp_prop.i10, align 8
  %_auto_errp_prop.val17.i25 = load ptr, ptr %errp2.i11, align 8
  call void @error_propagate(ptr noundef %_auto_errp_prop.val17.i25, ptr noundef %_auto_errp_prop.val.i24) #8
  call void @llvm.lifetime.end.p0(i64 16, ptr nonnull %_auto_errp_prop.i10)
  br label %for.end13

for.inc11:                                        ; preds = %invoke_stats_cb.exit, %if.then, %invoke_stats_cb.exit33.thread, %invoke_stats_cb.exit.thread
  %next12 = getelementptr inbounds nuw i8, ptr %entry1.047, i64 24
  %entry1.0 = load ptr, ptr %next12, align 8
  %tobool.not = icmp eq ptr %entry1.0, null
  br i1 %tobool.not, label %for.end13, label %for.body, !llvm.loop !7

for.end13:                                        ; preds = %for.inc11, %entry, %invoke_stats_cb.exit33
  %18 = load ptr, ptr %stats_results, align 8
  ret ptr %18
}